target datalayout = "e-m:e-p270:32:32-p271:32:32-p272:64:64-i64:64-i128:128-f80:128-n8:16:32:64-S128"
target triple = "x86_64-pc-linux-gnu"

%struct.ARG_list = type { ptr, i8, [0 x i8] }

@.str.8 = private unnamed_addr constant [5 x i8] c"proj\00", align 1
@.str.60 = private unnamed_addr constant [8 x i8] c"no_defs\00", align 1
@.str.61 = private unnamed_addr constant [9 x i8] c"pipeline\00", align 1
@.str.62 = private unnamed_addr constant [6 x i8] c"datum\00", align 1
@.str.63 = private unnamed_addr constant [6 x i8] c"ellps\00", align 1
@.str.64 = private unnamed_addr constant [2 x i8] c"a\00", align 1
@.str.65 = private unnamed_addr constant [2 x i8] c"b\00", align 1
@.str.66 = private unnamed_addr constant [3 x i8] c"rf\00", align 1
@.str.67 = private unnamed_addr constant [2 x i8] c"f\00", align 1
@.str.68 = private unnamed_addr constant [2 x i8] c"e\00", align 1
@.str.69 = private unnamed_addr constant [3 x i8] c"es\00", align 1
@.str.70 = private unnamed_addr constant [12 x i8] c"ellps=GRS80\00", align 1

; Function Attrs: mustprogress uwtable
define internal void @_ZL36append_default_ellipsoid_to_paralistP8ARG_list(ptr noundef %0) #0 {
  %2 = alloca ptr, align 8
  %3 = alloca ptr, align 8
  %4 = alloca ptr, align 8
  store ptr %0, ptr %2, align 8
  %5 = load ptr, ptr %2, align 8
  %6 = icmp eq ptr null, %5
  br i1 %6, label %7, label %8

7:                                                ; preds = %1
  br label %90

8:                                                ; preds = %1
  %9 = load ptr, ptr %2, align 8
  %10 = call noundef ptr @_Z15pj_param_existsP8ARG_listPKc(ptr noundef %9, ptr noundef @.str.60)
  %11 = icmp ne ptr %10, null
  br i1 %11, label %12, label %13

12:                                               ; preds = %8
  br label %90

13:                                               ; preds = %8
  %14 = load ptr, ptr %2, align 8
  %15 = call noundef ptr @_Z15pj_param_existsP8ARG_listPKc(ptr noundef %14, ptr noundef @.str.8)
  store ptr %15, ptr %3, align 8
  %16 = load ptr, ptr %3, align 8
  %17 = icmp eq ptr null, %16
  br i1 %17, label %18, label %19

18:                                               ; preds = %13
  br label %90

19:                                               ; preds = %13
  %20 = load ptr, ptr %3, align 8
  %21 = getelementptr inbounds %struct.ARG_list, ptr %20, i32 0, i32 2
  %22 = getelementptr inbounds [0 x i8], ptr %21, i64 0, i64 0
  %23 = call i64 @strlen(ptr noundef %22) #10
  %24 = icmp ult i64 %23, 6
  br i1 %24, label %25, label %26

25:                                               ; preds = %19
  br label %90

26:                                               ; preds = %19
  %27 = load ptr, ptr %3, align 8
  %28 = getelementptr inbounds %struct.ARG_list, ptr %27, i32 0, i32 2
  %29 = getelementptr inbounds [0 x i8], ptr %28, i64 0, i64 0
  %30 = getelementptr inbounds i8, ptr %29, i64 5
  %31 = call i32 @strcmp(ptr noundef @.str.61, ptr noundef %30) #10
  %32 = icmp eq i32 0, %31
  br i1 %32, label %33, label %34

33:                                               ; preds = %26
  br label %90

34:                                               ; preds = %26
  %35 = load ptr, ptr %2, align 8
  %36 = call noundef ptr @_Z15pj_param_existsP8ARG_listPKc(ptr noundef %35, ptr noundef @.str.62)
  %37 = icmp ne ptr %36, null
  br i1 %37, label %38, label %39

38:                                               ; preds = %34
  br label %90

39:                                               ; preds = %34
  %40 = load ptr, ptr %2, align 8
  %41 = call noundef ptr @_Z15pj_param_existsP8ARG_listPKc(ptr noundef %40, ptr noundef @.str.63)
  %42 = icmp ne ptr %41, null
  br i1 %42, label %43, label %44

43:                                               ; preds = %39
  br label %90

44:                                               ; preds = %39
  %45 = load ptr, ptr %2, align 8
  %46 = call noundef ptr @_Z15pj_param_existsP8ARG_listPKc(ptr noundef %45, ptr noundef @.str.64)
  %47 = icmp ne ptr %46, null
  br i1 %47, label %48, label %49

48:                                               ; preds = %44
  br label %90

49:                                               ; preds = %44
  %50 = load ptr, ptr %2, align 8
  %51 = call noundef ptr @_Z15pj_param_existsP8ARG_listPKc(ptr noundef %50, ptr noundef @.str.65)
  %52 = icmp ne ptr %51, null
  br i1 %52, label %53, label %54

53:                                               ; preds = %49
  br label %90

54:                                               ; preds = %49
  %55 = load ptr, ptr %2, align 8
  %56 = call noundef ptr @_Z15pj_param_existsP8ARG_listPKc(ptr noundef %55, ptr noundef @.str.66)
  %57 = icmp ne ptr %56, null
  br i1 %57, label %58, label %59

58:                                               ; preds = %54
  br label %90

59:                                               ; preds = %54
  %60 = load ptr, ptr %2, align 8
  %61 = call noundef ptr @_Z15pj_param_existsP8ARG_listPKc(ptr noundef %60, ptr noundef @.str.67)
  %62 = icmp ne ptr %61, null
  br i1 %62, label %63, label %64

63:                                               ; preds = %59
  br label %90

64:                                               ; preds = %59
  %65 = load ptr, ptr %2, align 8
  %66 = call noundef ptr @_Z15pj_param_existsP8ARG_listPKc(ptr noundef %65, ptr noundef @.str.68)
  %67 = icmp ne ptr %66, null
  br i1 %67, label %68, label %69

68:                                               ; preds = %64
  br label %90

69:                                               ; preds = %64
  %70 = load ptr, ptr %2, align 8
  %71 = call noundef ptr @_Z15pj_param_existsP8ARG_listPKc(ptr noundef %70, ptr noundef @.str.69)
  %72 = icmp ne ptr %71, null
  br i1 %72, label %73, label %74

73:                                               ; preds = %69
  br label %90

74:                                               ; preds = %69
  store ptr null, ptr %4, align 8
  %75 = load ptr, ptr %2, align 8
  store ptr %75, ptr %4, align 8
  br label %76

76:                                               ; preds = %82, %74
  %77 = load ptr, ptr %4, align 8
  %78 = getelementptr inbounds %struct.ARG_list, ptr %77, i32 0, i32 0
  %79 = load ptr, ptr %78, align 8
  %80 = icmp ne ptr %79, null
  br i1 %80, label %81, label %86

81:                                               ; preds = %76
  br label %82

82:                                               ; preds = %81
  %83 = load ptr, ptr %4, align 8
  %84 = getelementptr inbounds %struct.ARG_list, ptr %83, i32 0, i32 0
  %85 = load ptr, ptr %84, align 8
  store ptr %85, ptr %4, align 8
  br label %76, !llvm.loop !12

86:                                               ; preds = %76
  %87 = call noundef ptr @_Z10pj_mkparamPKc(ptr noundef @.str.70)
  %88 = load ptr, ptr %4, align 8
  %89 = getelementptr inbounds %struct.ARG_list, ptr %88, i32 0, i32 0
  store ptr %87, ptr %89, align 8
  br label %90

90:                                               ; preds = %86, %73, %68, %63, %58, %53, %48, %43, %38, %33, %25, %18, %12, %7
  ret void
}