; Function Attrs: mustprogress uwtable
define internal fastcc void @_ZL36append_default_ellipsoid_to_paralistP8ARG_list(ptr noundef %0) unnamed_addr #0 {
  %2 = tail call noundef ptr @_Z15pj_param_existsP8ARG_listPKc(ptr noundef %0, ptr noundef nonnull @.str.60)
  %.not = icmp eq ptr %2, null
  br i1 %.not, label %3, label %33

3:                                                ; preds = %1
  %4 = tail call noundef ptr @_Z15pj_param_existsP8ARG_listPKc(ptr noundef %0, ptr noundef nonnull @.str.8)
  %5 = icmp eq ptr %4, null
  br i1 %5, label %33, label %6

6:                                                ; preds = %3
  %7 = getelementptr inbounds i8, ptr %4, i64 9
  %8 = tail call i64 @strlen(ptr noundef nonnull dereferenceable(1) %7) #13
  %9 = icmp ult i64 %8, 6
  br i1 %9, label %33, label %10

10:                                               ; preds = %6
  %11 = getelementptr inbounds i8, ptr %4, i64 14
  %12 = tail call i32 @strcmp(ptr noundef nonnull dereferenceable(9) @.str.61, ptr noundef nonnull dereferenceable(1) %11) #13
  %13 = icmp eq i32 %12, 0
  br i1 %13, label %33, label %14

14:                                               ; preds = %10
  %15 = tail call noundef ptr @_Z15pj_param_existsP8ARG_listPKc(ptr noundef %0, ptr noundef nonnull @.str.62)
  %.not21 = icmp eq ptr %15, null
  br i1 %.not21, label %16, label %33

16:                                               ; preds = %14
  %17 = tail call noundef ptr @_Z15pj_param_existsP8ARG_listPKc(ptr noundef %0, ptr noundef nonnull @.str.63)
  %.not22 = icmp eq ptr %17, null
  br i1 %.not22, label %18, label %33

18:                                               ; preds = %16
  %19 = tail call noundef ptr @_Z15pj_param_existsP8ARG_listPKc(ptr noundef %0, ptr noundef nonnull @.str.64)
  %.not23 = icmp eq ptr %19, null
  br i1 %.not23, label %20, label %33

20:                                               ; preds = %18
  %21 = tail call noundef ptr @_Z15pj_param_existsP8ARG_listPKc(ptr noundef %0, ptr noundef nonnull @.str.65)
  %.not24 = icmp eq ptr %21, null
  br i1 %.not24, label %22, label %33

22:                                               ; preds = %20
  %23 = tail call noundef ptr @_Z15pj_param_existsP8ARG_listPKc(ptr noundef %0, ptr noundef nonnull @.str.66)
  %.not25 = icmp eq ptr %23, null
  br i1 %.not25, label %24, label %33

24:                                               ; preds = %22
  %25 = tail call noundef ptr @_Z15pj_param_existsP8ARG_listPKc(ptr noundef %0, ptr noundef nonnull @.str.67)
  %.not26 = icmp eq ptr %25, null
  br i1 %.not26, label %26, label %33

26:                                               ; preds = %24
  %27 = tail call noundef ptr @_Z15pj_param_existsP8ARG_listPKc(ptr noundef %0, ptr noundef nonnull @.str.68)
  %.not27 = icmp eq ptr %27, null
  br i1 %.not27, label %28, label %33

28:                                               ; preds = %26
  %29 = tail call noundef ptr @_Z15pj_param_existsP8ARG_listPKc(ptr noundef %0, ptr noundef nonnull @.str.69)
  %.not28 = icmp eq ptr %29, null
  br i1 %.not28, label %.preheader, label %33

.preheader:                                       ; preds = %28, %.preheader
  %.0 = phi ptr [ %30, %.preheader ], [ %0, %28 ]
  %30 = load ptr, ptr %.0, align 8
  %.not29 = icmp eq ptr %30, null
  br i1 %.not29, label %31, label %.preheader, !llvm.loop !15

31:                                               ; preds = %.preheader
  %32 = tail call noundef ptr @_Z10pj_mkparamPKc(ptr noundef nonnull @.str.70)
  store ptr %32, ptr %.0, align 8
  br label %33

33:                                               ; preds = %28, %26, %24, %22, %20, %18, %16, %14, %10, %6, %3, %1, %31
  ret void
}